; Function Attrs: nounwind uwtable
define void @Cut_OracleTryDroppingCuts(ptr noundef readonly captures(none) %0, i32 noundef %1) local_unnamed_addr #0 {
  %3 = getelementptr inbounds nuw i8, ptr %0, i64 8
  %4 = load ptr, ptr %3, align 8, !tbaa !43
  %5 = getelementptr i8, ptr %4, i64 8
  %.val = load ptr, ptr %5, align 8, !tbaa !44
  %6 = sext i32 %1 to i64
  %7 = getelementptr inbounds i32, ptr %.val, i64 %6
  %8 = load i32, ptr %7, align 4, !tbaa !47
  %9 = add nsw i32 %8, -1
  %10 = icmp eq i32 %9, 0
  br i1 %10, label %.split8, label %.split

.split:                                           ; preds = %2
  store i32 %9, ptr %7, align 4, !tbaa !47
  br label %26

.split8:                                          ; preds = %2
  %11 = getelementptr inbounds nuw i8, ptr %0, i64 24
  %12 = load ptr, ptr %11, align 8, !tbaa !28
  %13 = getelementptr i8, ptr %12, i64 8
  %.val17.i = load ptr, ptr %13, align 8, !tbaa !27
  %14 = getelementptr inbounds ptr, ptr %.val17.i, i64 %6
  %15 = load ptr, ptr %14, align 8, !tbaa !29
  %16 = icmp eq ptr %15, null
  br i1 %16, label %Cut_OracleFreeCuts.exit, label %17

17:                                               ; preds = %.split8
  %18 = getelementptr inbounds nuw i8, ptr %0, i64 72
  br label %19

19:                                               ; preds = %19, %17
  %.01418.i = phi ptr [ %15, %17 ], [ %.019.i, %19 ]
  %.019.in.i = getelementptr inbounds nuw i8, ptr %.01418.i, i64 16
  %.019.i = load ptr, ptr %.019.in.i, align 8, !tbaa !59
  %20 = load ptr, ptr %18, align 8, !tbaa !39
  tail call void @Extra_MmFixedEntryRecycle(ptr noundef %20, ptr noundef nonnull %.01418.i) #18
  %.not16.i = icmp eq ptr %.019.i, null
  br i1 %.not16.i, label %21, label %19, !llvm.loop !66

21:                                               ; preds = %19
  %22 = load ptr, ptr %11, align 8, !tbaa !28
  %23 = getelementptr i8, ptr %22, i64 8
  %.val.i = load ptr, ptr %23, align 8, !tbaa !27
  %24 = getelementptr inbounds ptr, ptr %.val.i, i64 %6
  store ptr %15, ptr %24, align 8, !tbaa !29
  %.pre = load ptr, ptr %3, align 8, !tbaa !43
  %.phi.trans.insert = getelementptr i8, ptr %.pre, i64 8
  %.val9.pre = load ptr, ptr %.phi.trans.insert, align 8, !tbaa !44
  br label %Cut_OracleFreeCuts.exit

Cut_OracleFreeCuts.exit:                          ; preds = %.split8, %21
  %.val9 = phi ptr [ %.val, %.split8 ], [ %.val9.pre, %21 ]
  %25 = getelementptr inbounds i32, ptr %.val9, i64 %6
  store i32 0, ptr %25, align 4, !tbaa !47
  br label %26

26:                                               ; preds = %.split, %Cut_OracleFreeCuts.exit
  ret void
}